Certificate:
    Data:
        Version: 3 (0x2)
        Serial Number:
            71:af:31:41:17:eb:08:9f:3a:da:58:1c:f8:7b:9c:1a
        Signature Algorithm: sha256WithRSAEncryption
        Issuer: C=AU, O=Example Org, CN=Root CA
        Validity
            Not Before: Jan  3 14:54:15 2025 GMT
            Not After : Jan  1 14:54:15 2035 GMT
        Subject: C=AU, O=Example Org, CN=Root CA
        Subject Public Key Info:
            Public Key Algorithm: rsaEncryption
                Public-Key: (4096 bit)
                Modulus:
                    00:c1:f4:b7:ca:fc:26:ca:fe:19:79:68:e7:3b:1b:
                    58:ee:a8:18:29:49:38:3c:bf:08:1f:a9:27:63:b7:
                    bf:ae:d4:31:e3:89:eb:dc:d2:1f:31:da:4f:10:29:
                    6e:13:78:e7:b5:ad:35:9a:59:c7:09:c7:93:c6:29:
                    56:f5:64:93:91:07:80:bc:18:f5:86:ee:86:73:49:
                    41:2f:75:b3:b1:65:4d:72:5c:ef:82:1e:7a:7b:20:
                    a6:d3:2c:4c:b1:34:cb:0c:35:fd:5f:b3:a3:d5:ab:
                    80:67:40:64:58:73:5e:f0:95:4c:25:a9:24:a8:78:
                    ce:b6:ed:04:51:a1:32:46:25:d4:39:1a:c3:dc:5e:
                    e4:10:52:45:26:f0:cd:c9:cc:82:9c:fd:33:f2:7b:
                    fe:e6:d4:cc:73:7e:7e:d9:bf:f4:30:2e:68:7c:a0:
                    e6:84:2a:42:7f:74:38:5e:e4:7d:e6:ba:a0:5f:b5:
                    93:31:31:0f:47:51:c9:16:aa:a1:8c:d4:2e:bd:64:
                    96:32:85:9c:d9:02:f2:da:dd:02:94:f1:61:01:d6:
                    f8:24:f0:f5:e4:4e:1e:fb:26:95:e0:c9:32:05:8d:
                    e6:5d:5d:55:72:aa:2a:33:54:41:23:b4:cc:7f:38:
                    57:60:e3:e9:e2:0b:fa:3a:64:7d:a9:be:ab:d9:93:
                    7c:f4:c1:a9:f8:cf:5f:7a:5d:49:17:8e:d7:e2:45:
                    3e:f1:f5:fb:47:cd:87:dc:dc:84:29:08:1f:d1:bb:
                    0d:09:91:73:b2:57:03:37:64:d5:ab:f2:f9:75:07:
                    cc:95:7b:8e:d3:09:7c:39:cd:73:e3:50:05:42:8c:
                    90:51:d9:a3:61:7c:e7:94:a8:92:b8:94:45:9d:b4:
                    04:34:53:f4:be:81:dc:c2:7b:60:5d:c9:73:04:bb:
                    7e:03:94:18:f6:64:41:8d:44:ca:e6:6c:6b:49:b0:
                    45:57:42:b3:51:21:92:ac:8d:5a:6c:54:3a:96:16:
                    5f:b3:57:88:0d:b4:b7:91:df:44:38:25:03:a2:07:
                    4f:f4:2f:f9:34:c1:55:92:0b:09:ba:1b:99:df:be:
                    ef:7b:9f:33:68:11:0b:f6:dd:21:1f:8c:7b:ed:e5:
                    c0:fe:06:73:02:bf:f7:41:49:54:1e:d2:2b:d3:62:
                    fc:11:98:b1:17:1b:a7:4a:a4:d2:7e:bc:a1:f9:91:
                    1a:f9:0b:39:cc:ca:a6:80:bf:25:7d:88:46:76:59:
                    e2:3b:04:56:2b:6f:63:75:45:c3:f0:a8:cc:15:21:
                    f6:52:b4:47:b9:e9:54:49:fa:96:7f:51:d9:6f:7e:
                    61:2f:bb:e9:25:30:95:8c:cf:89:2b:b7:7d:b2:19:
                    3f:e1:c7
                Exponent: 65537 (0x10001)
        X509v3 extensions:
            X509v3 Basic Constraints: critical
                CA:TRUE
            X509v3 Key Usage: critical
                Certificate Sign, CRL Sign
            X509v3 Subject Key Identifier: 
                80:A9:AC:DC:3E:D1:34:DB:48:7B:C2:1B:C7:12:1D:72:1B:62:A2:8A
    Signature Algorithm: sha256WithRSAEncryption
    Signature Value:
        a5:9e:10:f1:ef:b9:05:c9:ed:51:08:fc:79:23:90:df:a2:a9:
        c4:6f:18:f1:cf:c1:45:7b:59:52:79:a9:d9:98:16:90:0c:2e:
        47:d2:29:73:d9:4e:45:d6:52:26:2e:50:06:7b:b3:49:0c:e1:
        a6:66:2d:64:a1:09:9c:75:a0:22:34:fa:3d:82:b5:42:1d:89:
        d7:53:b6:6c:8a:12:0f:f4:62:f9:5a:38:ed:b9:91:5f:ad:36:
        e9:c5:fa:29:01:98:c7:b0:25:ec:6e:fa:12:3d:eb:b1:76:fd:
        9b:ac:6a:b9:1b:de:90:38:65:80:a7:8f:91:a4:75:d1:28:3a:
        1e:fa:d6:80:cf:9f:34:95:c7:f0:e9:b0:8e:84:d7:3c:a6:bd:
        e5:cb:55:5c:cd:2b:14:b2:d2:d9:5d:9f:21:8a:96:5f:8c:ce:
        e6:29:fc:fb:7b:f6:35:a8:2b:a0:35:6b:e3:7f:ee:5e:37:6b:
        b6:c0:23:cd:e3:93:98:8d:29:78:cc:55:61:88:ed:92:a9:d0:
        6a:0b:25:6e:8c:c9:46:38:fe:73:6d:47:5f:63:ac:12:55:24:
        db:67:1a:b9:31:13:6f:2c:4c:88:62:f7:2f:da:8a:9c:93:7a:
        4e:87:e8:8b:e7:87:fe:33:14:dd:d6:22:da:4c:71:68:b7:89:
        dc:30:19:ae:bc:0a:f2:ac:cd:f3:a3:d4:18:b4:cc:3c:81:e0:
        03:4b:8c:ce:5e:0e:f8:64:27:6b:c7:60:6d:d9:22:65:76:d2:
        98:52:c4:85:b8:c1:af:95:a2:c4:b2:7f:5f:62:45:f9:60:b1:
        b5:81:a0:ff:85:a2:43:e8:53:c6:b9:ca:b7:f6:61:be:fd:22:
        e6:ce:62:5a:55:6d:65:67:1c:5d:52:8e:c4:e2:7b:38:e5:dd:
        a9:ee:ef:45:4f:3b:c5:9e:d2:57:6e:c4:5f:b5:10:ac:36:3c:
        43:ab:24:68:35:80:ab:16:57:58:67:58:ef:19:a9:02:e8:e1:
        0a:5a:06:6a:04:ac:0c:91:84:03:4a:16:5d:ba:36:8c:8a:6d:
        58:54:cc:bd:03:ac:b7:7c:6d:23:62:b1:45:e9:1a:dd:ca:ac:
        70:0c:62:7c:5e:df:f3:e7:9b:20:bb:35:68:2f:67:dd:2d:46:
        49:b2:fd:5e:d0:87:d2:63:b1:1a:2d:dc:a1:eb:4e:eb:05:9c:
        7f:31:5f:e2:9c:7f:f0:ea:c0:ba:f6:6c:8e:31:3d:6a:12:25:
        93:b2:e8:0e:78:cd:98:3a:c2:0d:66:b3:cf:8c:4a:95:3b:ca:
        ef:36:a9:76:e5:74:b9:5a:01:0e:b4:0e:49:a4:e0:52:1b:30:
        f8:73:a3:a1:af:ab:20:89
-----BEGIN CERTIFICATE-----
MIIFNjCCAx6gAwIBAgIQca8xQRfrCJ862lgc+HucGjANBgkqhkiG9w0BAQsFADA1
MQswCQYDVQQGEwJBVTEUMBIGA1UECgwLRXhhbXBsZSBPcmcxEDAOBgNVBAMMB1Jv
b3QgQ0EwHhcNMjUwMTAzMTQ1NDE1WhcNMzUwMTAxMTQ1NDE1WjA1MQswCQYDVQQG
EwJBVTEUMBIGA1UECgwLRXhhbXBsZSBPcmcxEDAOBgNVBAMMB1Jvb3QgQ0EwggIi
MA0GCSqGSIb3DQEBAQUAA4ICDwAwggIKAoICAQDB9LfK/CbK/hl5aOc7G1juqBgp
STg8vwgfqSdjt7+u1DHjievc0h8x2k8QKW4TeOe1rTWaWccJx5PGKVb1ZJORB4C8
GPWG7oZzSUEvdbOxZU1yXO+CHnp7IKbTLEyxNMsMNf1fs6PVq4BnQGRYc17wlUwl
qSSoeM627QRRoTJGJdQ5GsPcXuQQUkUm8M3JzIKc/TPye/7m1Mxzfn7Zv/QwLmh8
oOaEKkJ/dDhe5H3muqBftZMxMQ9HUckWqqGM1C69ZJYyhZzZAvLa3QKU8WEB1vgk
8PXkTh77JpXgyTIFjeZdXVVyqiozVEEjtMx/OFdg4+niC/o6ZH2pvqvZk3z0wan4
z196XUkXjtfiRT7x9ftHzYfc3IQpCB/Ruw0JkXOyVwM3ZNWr8vl1B8yVe47TCXw5
zXPjUAVCjJBR2aNhfOeUqJK4lEWdtAQ0U/S+gdzCe2BdyXMEu34DlBj2ZEGNRMrm
bGtJsEVXQrNRIZKsjVpsVDqWFl+zV4gNtLeR30Q4JQOiB0/0L/k0wVWSCwm6G5nf
vu97nzNoEQv23SEfjHvt5cD+BnMCv/dBSVQe0ivTYvwRmLEXG6dKpNJ+vKH5kRr5
CznMyqaAvyV9iEZ2WeI7BFYrb2N1RcPwqMwVIfZStEe56VRJ+pZ/UdlvfmEvu+kl
MJWMz4krt32yGT/hxwIDAQABo0IwQDAPBgNVHRMBAf8EBTADAQH/MA4GA1UdDwEB
/wQEAwIBBjAdBgNVHQ4EFgQUgKms3D7RNNtIe8IbxxIdchtiooowDQYJKoZIhvcN
AQELBQADggIBAKWeEPHvuQXJ7VEI/HkjkN+iqcRvGPHPwUV7WVJ5qdmYFpAMLkfS
KXPZTkXWUiYuUAZ7s0kM4aZmLWShCZx1oCI0+j2CtUIdiddTtmyKEg/0YvlaOO25
kV+tNunF+ikBmMewJexu+hI967F2/Zusarkb3pA4ZYCnj5GkddEoOh761oDPnzSV
x/DpsI6E1zymveXLVVzNKxSy0tldnyGKll+MzuYp/Pt79jWoK6A1a+N/7l43a7bA
I83jk5iNKXjMVWGI7ZKp0GoLJW6MyUY4/nNtR19jrBJVJNtnGrkxE28sTIhi9y/a
ipyTek6H6Ivnh/4zFN3WItpMcWi3idwwGa68CvKszfOj1Bi0zDyB4ANLjM5eDvhk
J2vHYG3ZImV20phSxIW4wa+VosSyf19iRflgsbWBoP+FokPoU8a5yrf2Yb79IubO
YlpVbWVnHF1SjsTiezjl3anu70VPO8We0lduxF+1EKw2PEOrJGg1gKsWV1hnWO8Z
qQLo4QpaBmoErAyRhANKFl26NoyKbVhUzL0DrLd8bSNisUXpGt3KrHAMYnxe3/Pn
myC7NWgvZ90tRkmy/V7Qh9JjsRot3KHrTusFnH8xX+Kcf/DqwLr2bI4xPWoSJZOy
6A54zZg6wg1ms8+MSpU7yu82qXbldLlaAQ60Dkmk4FIbMPhzo6GvqyCJ
-----END CERTIFICATE-----
