Certificate:
    Data:
        Version: 3 (0x2)
        Serial Number:
            71:af:31:41:17:eb:08:9f:3a:da:58:1c:f8:7b:9c:1b
        Signature Algorithm: sha256WithRSAEncryption
        Issuer: C=AU, O=Example Org, CN=Root CA
        Validity
            Not Before: Jan  3 14:59:44 2025 GMT
            Not After : Jan  1 14:59:44 2035 GMT
        Subject: C=AU, O=Example Org, CN=Intermediary CA
        Subject Public Key Info:
            Public Key Algorithm: rsaEncryption
                Public-Key: (4096 bit)
                Modulus:
                    00:f3:d2:fc:0b:2e:3c:aa:41:41:a0:31:d2:2a:14:
                    22:b3:45:d0:65:7b:f9:05:5d:7f:31:8e:d1:f9:cd:
                    34:b9:4f:f2:9c:22:4c:0e:fc:c0:96:5b:10:08:b2:
                    af:32:28:60:ed:3d:a8:38:04:f3:30:ca:0f:97:1d:
                    4c:dd:c8:f2:02:46:05:6b:43:d4:a0:c6:6b:c7:72:
                    25:13:fb:f5:fd:81:6d:74:f0:bc:b3:fe:28:2c:12:
                    b6:9b:37:68:47:a7:a6:31:22:8e:74:40:c4:b9:24:
                    51:90:7a:71:df:7c:44:e2:2d:51:84:72:98:44:5a:
                    35:2b:9d:90:ef:82:ad:e5:9e:3e:8a:32:25:1a:e4:
                    48:4e:0a:bb:a6:22:a9:f4:07:a3:20:5d:09:93:53:
                    72:20:8a:93:4d:93:26:9f:b6:8d:6a:5d:8a:d3:64:
                    fd:90:f1:c9:71:8e:29:bf:f2:d3:93:49:92:71:81:
                    08:de:74:30:3f:2b:1d:10:6f:f9:ba:b1:49:50:76:
                    51:72:02:4c:85:26:35:41:5b:31:31:25:8b:5e:94:
                    a4:e5:ac:12:86:0d:9d:57:42:6b:9e:f3:d0:87:68:
                    6b:f1:90:a9:85:b0:f5:9b:f3:17:1c:7f:ff:15:fb:
                    5c:08:05:8a:78:b6:f3:d8:8a:a6:9b:17:fd:c2:c5:
                    0b:3f:df:f4:11:b9:6e:fa:fb:b2:2b:94:c6:9d:3b:
                    98:9f:f1:86:f8:15:d9:e3:c8:55:1d:9b:a3:5f:00:
                    be:ad:13:c5:81:c3:6a:7a:26:d4:99:db:f3:ef:4d:
                    8a:8e:c5:f6:5d:4a:77:14:f3:3e:b4:a7:5d:b1:b5:
                    fe:a4:5b:a9:ff:cd:32:4f:f8:70:0d:ef:c8:44:eb:
                    98:73:5a:1f:e6:7d:1e:b6:37:16:07:d7:14:c4:7b:
                    26:d2:0f:69:f0:4b:fe:b5:8c:42:20:8f:3e:fb:89:
                    46:ca:22:6a:cc:9a:90:b0:8c:8e:b6:c5:24:8c:c3:
                    87:56:d8:6c:fa:19:e7:71:10:f6:73:24:db:41:e6:
                    ac:d9:fe:73:2f:34:f5:45:a4:4b:0f:7b:41:9b:64:
                    fe:07:42:90:bc:9b:2e:77:1d:a6:51:da:e1:64:0c:
                    06:83:82:f9:8c:05:5d:ff:e0:ad:e0:ac:f7:4e:b1:
                    fc:85:4c:03:a4:0d:73:2d:ee:ef:34:b1:f5:74:c6:
                    c2:a6:56:9f:de:ba:2d:ac:e4:ad:68:ba:1d:29:3a:
                    77:39:ac:17:c4:6a:2d:f5:de:0f:8c:47:6e:25:f6:
                    f4:aa:7d:b3:e7:24:ff:29:93:5b:cb:25:fe:3b:49:
                    e3:90:81:cf:2b:86:d9:17:e9:d6:e9:52:38:d6:7c:
                    2b:e6:55
                Exponent: 65537 (0x10001)
        X509v3 extensions:
            X509v3 Subject Key Identifier: 
                1E:F5:89:D2:E3:23:B4:8E:A5:E7:39:B0:BE:36:A7:81:7B:17:4B:58
            X509v3 Authority Key Identifier: 
                80:A9:AC:DC:3E:D1:34:DB:48:7B:C2:1B:C7:12:1D:72:1B:62:A2:8A
            X509v3 Basic Constraints: critical
                CA:TRUE, pathlen:0
            X509v3 Key Usage: critical
                Digital Signature, Certificate Sign, CRL Sign
    Signature Algorithm: sha256WithRSAEncryption
    Signature Value:
        37:1b:80:3a:22:4d:61:37:93:ec:32:32:5f:5d:45:c5:81:2e:
        6f:15:83:22:bd:bb:7a:b3:66:33:b1:48:6d:d1:be:f3:f1:be:
        fd:69:f0:2a:8d:8a:5f:3a:9b:a5:30:e1:be:fc:8b:97:e8:ce:
        84:91:11:6d:1c:6f:27:5c:80:1d:2e:33:5e:1d:8b:cf:1f:87:
        29:ce:91:bf:39:70:65:24:df:7c:b6:00:1f:7d:81:db:85:8f:
        c9:56:9a:2a:d7:28:5e:0f:e5:71:2c:04:6f:16:fa:2e:5b:65:
        76:9d:d8:b9:2c:2a:60:cf:a5:63:8a:ea:0f:39:58:d3:d0:6c:
        fa:a5:1a:06:95:84:8f:e7:1b:90:a6:16:68:3a:93:74:5c:77:
        eb:3a:cf:1e:1e:cd:05:94:cc:96:f9:21:54:57:3d:6b:52:cd:
        b6:93:09:ea:29:40:b5:6e:2e:86:db:2e:72:d2:b5:41:53:80:
        d9:c2:e1:e9:f9:4f:b5:11:83:5e:63:3e:5b:d0:6d:c9:25:b3:
        aa:05:4b:a1:79:44:4a:ab:d4:6e:90:f3:a5:ab:1b:b0:87:21:
        77:15:aa:a9:a4:6b:ed:2f:e4:49:5a:df:ba:1a:91:1d:1b:97:
        03:49:f9:58:0f:24:fc:fc:e6:47:9a:dd:7a:fd:c9:eb:ad:49:
        1f:cd:8c:fd:45:6f:f2:e9:19:3f:da:66:9a:e5:09:9e:2d:0c:
        ff:0c:ad:db:7d:dc:99:c6:38:1f:bb:76:4b:39:25:ce:3d:92:
        4a:b3:cc:82:72:50:d4:23:54:e7:44:94:88:27:39:dd:62:dd:
        f4:87:4e:6e:65:84:8c:9a:3c:d3:17:f6:01:aa:aa:54:1d:70:
        1a:42:9c:d8:50:f3:84:47:b2:d9:ac:1c:7c:bb:88:40:ef:d9:
        a2:e0:a5:0f:92:0a:fa:59:fd:15:14:2f:d1:04:6f:bb:29:d8:
        3e:41:7c:bd:33:9a:75:19:5c:9d:50:53:04:a9:d6:2c:29:b9:
        3e:52:7c:cb:2b:95:b5:bd:dd:12:78:0d:69:83:2b:a3:e5:31:
        07:63:a1:6f:e6:36:bf:c4:f2:6d:3d:85:2e:0f:56:2b:09:31:
        f9:57:36:d9:2c:62:d9:63:92:4d:f2:3b:4e:01:10:b2:f5:d2:
        85:97:92:a9:fc:89:cf:6f:d3:3a:de:1e:57:41:47:aa:94:ad:
        66:ef:d2:54:5d:f8:ce:2a:19:a3:66:dc:f8:7c:8f:b0:2b:91:
        3e:1a:92:f9:f7:3d:fa:46:db:d8:4f:8c:28:fb:df:b1:11:77:
        b5:a6:16:cf:93:22:9b:c6:6a:ce:c6:d5:34:6c:fa:52:07:33:
        de:ae:00:69:a7:88:be:7d
-----BEGIN CERTIFICATE-----
MIIFYjCCA0qgAwIBAgIQca8xQRfrCJ862lgc+HucGzANBgkqhkiG9w0BAQsFADA1
MQswCQYDVQQGEwJBVTEUMBIGA1UECgwLRXhhbXBsZSBPcmcxEDAOBgNVBAMMB1Jv
b3QgQ0EwHhcNMjUwMTAzMTQ1OTQ0WhcNMzUwMTAxMTQ1OTQ0WjA9MQswCQYDVQQG
EwJBVTEUMBIGA1UECgwLRXhhbXBsZSBPcmcxGDAWBgNVBAMMD0ludGVybWVkaWFy
eSBDQTCCAiIwDQYJKoZIhvcNAQEBBQADggIPADCCAgoCggIBAPPS/AsuPKpBQaAx
0ioUIrNF0GV7+QVdfzGO0fnNNLlP8pwiTA78wJZbEAiyrzIoYO09qDgE8zDKD5cd
TN3I8gJGBWtD1KDGa8dyJRP79f2BbXTwvLP+KCwStps3aEenpjEijnRAxLkkUZB6
cd98ROItUYRymERaNSudkO+CreWePooyJRrkSE4Ku6YiqfQHoyBdCZNTciCKk02T
Jp+2jWpditNk/ZDxyXGOKb/y05NJknGBCN50MD8rHRBv+bqxSVB2UXICTIUmNUFb
MTEli16UpOWsEoYNnVdCa57z0Idoa/GQqYWw9ZvzFxx//xX7XAgFini289iKppsX
/cLFCz/f9BG5bvr7siuUxp07mJ/xhvgV2ePIVR2bo18Avq0TxYHDanom1Jnb8+9N
io7F9l1KdxTzPrSnXbG1/qRbqf/NMk/4cA3vyETrmHNaH+Z9HrY3FgfXFMR7JtIP
afBL/rWMQiCPPvuJRsoiasyakLCMjrbFJIzDh1bYbPoZ53EQ9nMk20HmrNn+cy80
9UWkSw97QZtk/gdCkLybLncdplHa4WQMBoOC+YwFXf/greCs906x/IVMA6QNcy3u
7zSx9XTGwqZWn966LazkrWi6HSk6dzmsF8RqLfXeD4xHbiX29Kp9s+ck/ymTW8sl
/jtJ45CBzyuG2Rfp1ulSONZ8K+ZVAgMBAAGjZjBkMB0GA1UdDgQWBBQe9YnS4yO0
jqXnObC+NqeBexdLWDAfBgNVHSMEGDAWgBSAqazcPtE020h7whvHEh1yG2KiijAS
BgNVHRMBAf8ECDAGAQH/AgEAMA4GA1UdDwEB/wQEAwIBhjANBgkqhkiG9w0BAQsF
AAOCAgEANxuAOiJNYTeT7DIyX11FxYEubxWDIr27erNmM7FIbdG+8/G+/WnwKo2K
XzqbpTDhvvyLl+jOhJERbRxvJ1yAHS4zXh2Lzx+HKc6RvzlwZSTffLYAH32B24WP
yVaaKtcoXg/lcSwEbxb6Lltldp3YuSwqYM+lY4rqDzlY09Bs+qUaBpWEj+cbkKYW
aDqTdFx36zrPHh7NBZTMlvkhVFc9a1LNtpMJ6ilAtW4uhtsuctK1QVOA2cLh6flP
tRGDXmM+W9BtySWzqgVLoXlESqvUbpDzpasbsIchdxWqqaRr7S/kSVrfuhqRHRuX
A0n5WA8k/PzmR5rdev3J661JH82M/UVv8ukZP9pmmuUJni0M/wyt233cmcY4H7t2
Szklzj2SSrPMgnJQ1CNU50SUiCc53WLd9IdObmWEjJo80xf2AaqqVB1wGkKc2FDz
hEey2awcfLuIQO/ZouClD5IK+ln9FRQv0QRvuynYPkF8vTOadRlcnVBTBKnWLCm5
PlJ8yyuVtb3dEngNaYMro+UxB2Ohb+Y2v8TybT2FLg9WKwkx+Vc22Sxi2WOSTfI7
TgEQsvXShZeSqfyJz2/TOt4eV0FHqpStZu/SVF34zioZo2bc+HyPsCuRPhqS+fc9
+kbb2E+MKPvfsRF3taYWz5Mim8ZqzsbVNGz6Ugcz3q4AaaeIvn0=
-----END CERTIFICATE-----
